; Function Attrs: mustprogress uwtable
define noundef nonnull align 8 dereferenceable(8) ptr @_ZN8QuantLiblsERSoRKSt6vectorINS_12PricingErrorESaIS2_EE(ptr noundef nonnull returned align 8 dereferenceable(8) %out, ptr nocapture noundef nonnull readonly align 8 dereferenceable(24) %errors) local_unnamed_addr #3 {
entry:
  %0 = load ptr, ptr %errors, align 8, !tbaa !23
  %_M_finish.i.i = getelementptr inbounds nuw i8, ptr %errors, i64 8
  %1 = load ptr, ptr %_M_finish.i.i, align 8, !tbaa !23
  %cmp.i.i = icmp eq ptr %0, %1
  br i1 %cmp.i.i, label %if.end, label %if.then

if.then:                                          ; preds = %entry
  %call1.i = tail call noundef nonnull align 8 dereferenceable(8) ptr @_ZSt16__ostream_insertIcSt11char_traitsIcEERSt13basic_ostreamIT_T0_ES6_PKS3_l(ptr noundef nonnull align 8 dereferenceable(8) %out, ptr noundef nonnull @.str.8, i64 noundef 18)
  %vtable.i = load ptr, ptr %out, align 8, !tbaa !3
  %vbase.offset.ptr.i = getelementptr i8, ptr %vtable.i, i64 -24
  %vbase.offset.i = load i64, ptr %vbase.offset.ptr.i, align 8
  %add.ptr.i = getelementptr inbounds i8, ptr %out, i64 %vbase.offset.i
  %_M_ctype.i.i = getelementptr inbounds nuw i8, ptr %add.ptr.i, i64 240
  %2 = load ptr, ptr %_M_ctype.i.i, align 8, !tbaa !32
  %tobool.not.i.i.i = icmp eq ptr %2, null
  br i1 %tobool.not.i.i.i, label %if.then.i.i.i, label %_ZSt13__check_facetISt5ctypeIcEERKT_PS3_.exit.i.i

if.then.i.i.i:                                    ; preds = %if.then
  tail call void @_ZSt16__throw_bad_castv() #23
  unreachable

_ZSt13__check_facetISt5ctypeIcEERKT_PS3_.exit.i.i: ; preds = %if.then
  %_M_widen_ok.i.i.i = getelementptr inbounds nuw i8, ptr %2, i64 56
  %3 = load i8, ptr %_M_widen_ok.i.i.i, align 8, !tbaa !41
  %tobool.not.i1.i.i = icmp eq i8 %3, 0
  br i1 %tobool.not.i1.i.i, label %if.end.i.i.i, label %if.then.i2.i.i

if.then.i2.i.i:                                   ; preds = %_ZSt13__check_facetISt5ctypeIcEERKT_PS3_.exit.i.i
  %arrayidx.i.i.i = getelementptr inbounds nuw i8, ptr %2, i64 67
  %4 = load i8, ptr %arrayidx.i.i.i, align 1, !tbaa !31
  br label %_ZSt4endlIcSt11char_traitsIcEERSt13basic_ostreamIT_T0_ES6_.exit

if.end.i.i.i:                                     ; preds = %_ZSt13__check_facetISt5ctypeIcEERKT_PS3_.exit.i.i
  tail call void @_ZNKSt5ctypeIcE13_M_widen_initEv(ptr noundef nonnull align 8 dereferenceable(570) %2)
  %vtable.i.i.i = load ptr, ptr %2, align 8, !tbaa !3
  %vfn.i.i.i = getelementptr inbounds i8, ptr %vtable.i.i.i, i64 48
  %5 = load ptr, ptr %vfn.i.i.i, align 8
  %call.i.i.i = tail call noundef signext i8 %5(ptr noundef nonnull align 8 dereferenceable(570) %2, i8 noundef signext 10)
  br label %_ZSt4endlIcSt11char_traitsIcEERSt13basic_ostreamIT_T0_ES6_.exit

_ZSt4endlIcSt11char_traitsIcEERSt13basic_ostreamIT_T0_ES6_.exit: ; preds = %if.then.i2.i.i, %if.end.i.i.i
  %retval.0.i.i.i = phi i8 [ %4, %if.then.i2.i.i ], [ %call.i.i.i, %if.end.i.i.i ]
  %call1.i6 = tail call noundef nonnull align 8 dereferenceable(8) ptr @_ZNSo3putEc(ptr noundef nonnull align 8 dereferenceable(8) %out, i8 noundef signext %retval.0.i.i.i)
  %call.i.i7 = tail call noundef nonnull align 8 dereferenceable(8) ptr @_ZNSo5flushEv(ptr noundef nonnull align 8 dereferenceable(8) %call1.i6)
  %6 = load ptr, ptr %errors, align 8, !tbaa !23
  %7 = load ptr, ptr %_M_finish.i.i, align 8, !tbaa !23
  %invariant.gep = getelementptr i8, ptr %out, i64 240
  %cmp.i.not30 = icmp eq ptr %6, %7
  br i1 %cmp.i.not30, label %if.end, label %for.body

for.body:                                         ; preds = %_ZSt4endlIcSt11char_traitsIcEERSt13basic_ostreamIT_T0_ES6_.exit, %_ZSt4endlIcSt11char_traitsIcEERSt13basic_ostreamIT_T0_ES6_.exit27
  %__begin2.sroa.0.031 = phi ptr [ %incdec.ptr.i, %_ZSt4endlIcSt11char_traitsIcEERSt13basic_ostreamIT_T0_ES6_.exit27 ], [ %6, %_ZSt4endlIcSt11char_traitsIcEERSt13basic_ostreamIT_T0_ES6_.exit ]
  %call8 = tail call noundef nonnull align 8 dereferenceable(8) ptr @_ZN8QuantLiblsERSoRKNS_12PricingErrorE(ptr noundef nonnull align 8 dereferenceable(8) %out, ptr noundef nonnull align 8 dereferenceable(104) %__begin2.sroa.0.031)
  %vtable.i8 = load ptr, ptr %out, align 8, !tbaa !3
  %vbase.offset.ptr.i9 = getelementptr i8, ptr %vtable.i8, i64 -24
  %vbase.offset.i10 = load i64, ptr %vbase.offset.ptr.i9, align 8
  %gep = getelementptr i8, ptr %invariant.gep, i64 %vbase.offset.i10
  %8 = load ptr, ptr %gep, align 8, !tbaa !32
  %tobool.not.i.i.i13 = icmp eq ptr %8, null
  br i1 %tobool.not.i.i.i13, label %if.then.i.i.i26, label %_ZSt13__check_facetISt5ctypeIcEERKT_PS3_.exit.i.i14

if.then.i.i.i26:                                  ; preds = %for.body
  tail call void @_ZSt16__throw_bad_castv() #23
  unreachable

_ZSt13__check_facetISt5ctypeIcEERKT_PS3_.exit.i.i14: ; preds = %for.body
  %_M_widen_ok.i.i.i15 = getelementptr inbounds nuw i8, ptr %8, i64 56
  %9 = load i8, ptr %_M_widen_ok.i.i.i15, align 8, !tbaa !41
  %tobool.not.i1.i.i16 = icmp eq i8 %9, 0
  br i1 %tobool.not.i1.i.i16, label %if.end.i.i.i22, label %if.then.i2.i.i17

if.then.i2.i.i17:                                 ; preds = %_ZSt13__check_facetISt5ctypeIcEERKT_PS3_.exit.i.i14
  %arrayidx.i.i.i18 = getelementptr inbounds nuw i8, ptr %8, i64 67
  %10 = load i8, ptr %arrayidx.i.i.i18, align 1, !tbaa !31
  br label %_ZSt4endlIcSt11char_traitsIcEERSt13basic_ostreamIT_T0_ES6_.exit27

if.end.i.i.i22:                                   ; preds = %_ZSt13__check_facetISt5ctypeIcEERKT_PS3_.exit.i.i14
  tail call void @_ZNKSt5ctypeIcE13_M_widen_initEv(ptr noundef nonnull align 8 dereferenceable(570) %8)
  %vtable.i.i.i23 = load ptr, ptr %8, align 8, !tbaa !3
  %vfn.i.i.i24 = getelementptr inbounds i8, ptr %vtable.i.i.i23, i64 48
  %11 = load ptr, ptr %vfn.i.i.i24, align 8
  %call.i.i.i25 = tail call noundef signext i8 %11(ptr noundef nonnull align 8 dereferenceable(570) %8, i8 noundef signext 10)
  br label %_ZSt4endlIcSt11char_traitsIcEERSt13basic_ostreamIT_T0_ES6_.exit27

_ZSt4endlIcSt11char_traitsIcEERSt13basic_ostreamIT_T0_ES6_.exit27: ; preds = %if.then.i2.i.i17, %if.end.i.i.i22
  %retval.0.i.i.i19 = phi i8 [ %10, %if.then.i2.i.i17 ], [ %call.i.i.i25, %if.end.i.i.i22 ]
  %call1.i20 = tail call noundef nonnull align 8 dereferenceable(8) ptr @_ZNSo3putEc(ptr noundef nonnull align 8 dereferenceable(8) %out, i8 noundef signext %retval.0.i.i.i19)
  %call.i.i21 = tail call noundef nonnull align 8 dereferenceable(8) ptr @_ZNSo5flushEv(ptr noundef nonnull align 8 dereferenceable(8) %call1.i20)
  %incdec.ptr.i = getelementptr inbounds nuw i8, ptr %__begin2.sroa.0.031, i64 104
  %cmp.i.not = icmp eq ptr %incdec.ptr.i, %7
  br i1 %cmp.i.not, label %if.end, label %for.body

if.end:                                           ; preds = %_ZSt4endlIcSt11char_traitsIcEERSt13basic_ostreamIT_T0_ES6_.exit27, %_ZSt4endlIcSt11char_traitsIcEERSt13basic_ostreamIT_T0_ES6_.exit, %entry
  ret ptr %out
}